	.file	"2-7-13.cpp"
	.section	.rodata.str1.8,"aMS",@progbits,1
	.align 8
.LC0:
	.string	"Enter a Range for Fahrenheit\nmin: "
	.section	.rodata.str1.1,"aMS",@progbits,1
.LC1:
	.string	"max: "
	.section	.rodata.str1.8
	.align 8
.LC2:
	.string	"+===============================+\n"
	.align 8
.LC3:
	.string	"|  Fahrenheit   |    Celcius    |\n"
	.align 8
.LC4:
	.string	"|---------------|---------------|\n"
	.section	.rodata.str1.1
.LC5:
	.string	"|      "
.LC6:
	.string	"|   "
.LC8:
	.string	"|\n"
	.section	.rodata.str1.8
	.align 8
.LC9:
	.string	"|               |               |\n"
	.align 8
.LC10:
	.string	"+===============|===============+\n"
	.section	.text.startup,"ax",@progbits
	.p2align 4,,15
	.globl	main
	.type	main, @function
main:
.LFB1024:
	.cfi_startproc
	pushq	%r12
	.cfi_def_cfa_offset 16
	.cfi_offset 12, -16
	movl	$.LC0, %esi
	movl	$_ZSt4cout, %edi
	pushq	%rbp
	.cfi_def_cfa_offset 24
	.cfi_offset 6, -24
	pushq	%rbx
	.cfi_def_cfa_offset 32
	.cfi_offset 3, -32
	subq	$16, %rsp
	.cfi_def_cfa_offset 48
	call	_ZStlsISt11char_traitsIcEERSt13basic_ostreamIcT_ES5_PKc
	leaq	8(%rsp), %rsi
	movl	$_ZSt3cin, %edi
	call	_ZNSirsERi
	movl	$.LC1, %esi
	movl	$_ZSt4cout, %edi
	call	_ZStlsISt11char_traitsIcEERSt13basic_ostreamIcT_ES5_PKc
	leaq	12(%rsp), %rsi
	movl	$_ZSt3cin, %edi
	call	_ZNSirsERi
	movl	$.LC2, %esi
	movl	$_ZSt4cout, %edi
	call	_ZStlsISt11char_traitsIcEERSt13basic_ostreamIcT_ES5_PKc
	movl	$.LC3, %esi
	movl	$_ZSt4cout, %edi
	call	_ZStlsISt11char_traitsIcEERSt13basic_ostreamIcT_ES5_PKc
	movl	$.LC4, %esi
	movl	$_ZSt4cout, %edi
	call	_ZStlsISt11char_traitsIcEERSt13basic_ostreamIcT_ES5_PKc
	movl	8(%rsp), %ebx
	cmpl	12(%rsp), %ebx
	movq	$5, _ZSt4cout+16(%rip)
	jg	.L2
	movl	$_ZSt4cout, %r12d
	.p2align 4,,10
	.p2align 3
.L3:
	movq	_ZSt4cout(%rip), %rax
	movl	$.LC5, %esi
	movl	$_ZSt4cout, %edi
	movq	-24(%rax), %rdx
	movl	_ZSt4cout+24(%rdx), %eax
	andb	$79, %al
	orl	$32, %eax
	movl	%eax, _ZSt4cout+24(%rdx)
	movl	$7, %edx
	call	_ZSt16__ostream_insertIcSt11char_traitsIcEERSt13basic_ostreamIT_T0_ES6_PKS3_l
	movq	_ZSt4cout(%rip), %rax
	movl	%ebx, %esi
	movl	$_ZSt4cout, %edi
	movq	-24(%rax), %rax
	movq	$9, 16(%r12,%rax)
	call	_ZNSolsEi
	movl	$4, %edx
	movq	%rax, %rbp
	movl	$.LC6, %esi
	movq	%rax, %rdi
	call	_ZSt16__ostream_insertIcSt11char_traitsIcEERSt13basic_ostreamIT_T0_ES6_PKS3_l
	movq	0(%rbp), %rax
	movq	%rbp, %rdi
	movq	-24(%rax), %rax
	movq	$12, 16(%rbp,%rax)
	leal	-32(%rbx), %eax
	addl	$1, %ebx
	cvtsi2sd	%eax, %xmm0
	mulsd	.LC7(%rip), %xmm0
	unpcklpd	%xmm0, %xmm0
	cvtpd2ps	%xmm0, %xmm0
	unpcklps	%xmm0, %xmm0
	cvtps2pd	%xmm0, %xmm0
	call	_ZNSo9_M_insertIdEERSoT_
	movl	$2, %edx
	movl	$.LC8, %esi
	movq	%rax, %rdi
	call	_ZSt16__ostream_insertIcSt11char_traitsIcEERSt13basic_ostreamIT_T0_ES6_PKS3_l
	cmpl	%ebx, 12(%rsp)
	jge	.L3
.L2:
	movl	$.LC9, %esi
	movl	$_ZSt4cout, %edi
	call	_ZStlsISt11char_traitsIcEERSt13basic_ostreamIcT_ES5_PKc
	movl	$.LC10, %esi
	movl	$_ZSt4cout, %edi
	call	_ZStlsISt11char_traitsIcEERSt13basic_ostreamIcT_ES5_PKc
	addq	$16, %rsp
	.cfi_def_cfa_offset 32
	xorl	%eax, %eax
	popq	%rbx
	.cfi_def_cfa_offset 24
	popq	%rbp
	.cfi_def_cfa_offset 16
	popq	%r12
	.cfi_def_cfa_offset 8
	ret
	.cfi_endproc
.LFE1024:
	.size	main, .-main
	.p2align 4,,15
	.type	_GLOBAL__sub_I_main, @function
_GLOBAL__sub_I_main:
.LFB1032:
	.cfi_startproc
	subq	$8, %rsp
	.cfi_def_cfa_offset 16
	movl	$_ZStL8__ioinit, %edi
	call	_ZNSt8ios_base4InitC1Ev
	movl	$__dso_handle, %edx
	movl	$_ZStL8__ioinit, %esi
	movl	$_ZNSt8ios_base4InitD1Ev, %edi
	addq	$8, %rsp
	.cfi_def_cfa_offset 8
	jmp	__cxa_atexit
	.cfi_endproc
.LFE1032:
	.size	_GLOBAL__sub_I_main, .-_GLOBAL__sub_I_main
	.section	.ctors,"aw",@progbits
	.align 8
	.quad	_GLOBAL__sub_I_main
	.local	_ZStL8__ioinit
	.comm	_ZStL8__ioinit,1,1
	.weakref	_ZL20__gthrw_pthread_oncePiPFvvE,pthread_once
	.weakref	_ZL27__gthrw_pthread_getspecificj,pthread_getspecific
	.weakref	_ZL27__gthrw_pthread_setspecificjPKv,pthread_setspecific
	.weakref	_ZL22__gthrw_pthread_createPmPK14pthread_attr_tPFPvS3_ES3_,pthread_create
	.weakref	_ZL20__gthrw_pthread_joinmPPv,pthread_join
	.weakref	_ZL21__gthrw_pthread_equalmm,pthread_equal
	.weakref	_ZL20__gthrw_pthread_selfv,pthread_self
	.weakref	_ZL22__gthrw_pthread_detachm,pthread_detach
	.weakref	_ZL22__gthrw_pthread_cancelm,pthread_cancel
	.weakref	_ZL19__gthrw_sched_yieldv,sched_yield
	.weakref	_ZL26__gthrw_pthread_mutex_lockP15pthread_mutex_t,pthread_mutex_lock
	.weakref	_ZL29__gthrw_pthread_mutex_trylockP15pthread_mutex_t,pthread_mutex_trylock
	.weakref	_ZL31__gthrw_pthread_mutex_timedlockP15pthread_mutex_tPK8timespec,pthread_mutex_timedlock
	.weakref	_ZL28__gthrw_pthread_mutex_unlockP15pthread_mutex_t,pthread_mutex_unlock
	.weakref	_ZL26__gthrw_pthread_mutex_initP15pthread_mutex_tPK19pthread_mutexattr_t,pthread_mutex_init
	.weakref	_ZL29__gthrw_pthread_mutex_destroyP15pthread_mutex_t,pthread_mutex_destroy
	.weakref	_ZL30__gthrw_pthread_cond_broadcastP14pthread_cond_t,pthread_cond_broadcast
	.weakref	_ZL27__gthrw_pthread_cond_signalP14pthread_cond_t,pthread_cond_signal
	.weakref	_ZL25__gthrw_pthread_cond_waitP14pthread_cond_tP15pthread_mutex_t,pthread_cond_wait
	.weakref	_ZL30__gthrw_pthread_cond_timedwaitP14pthread_cond_tP15pthread_mutex_tPK8timespec,pthread_cond_timedwait
	.weakref	_ZL28__gthrw_pthread_cond_destroyP14pthread_cond_t,pthread_cond_destroy
	.weakref	_ZL26__gthrw_pthread_key_createPjPFvPvE,pthread_key_create
	.weakref	_ZL26__gthrw_pthread_key_deletej,pthread_key_delete
	.weakref	_ZL30__gthrw_pthread_mutexattr_initP19pthread_mutexattr_t,pthread_mutexattr_init
	.weakref	_ZL33__gthrw_pthread_mutexattr_settypeP19pthread_mutexattr_ti,pthread_mutexattr_settype
	.weakref	_ZL33__gthrw_pthread_mutexattr_destroyP19pthread_mutexattr_t,pthread_mutexattr_destroy
	.section	.rodata.cst8,"aM",@progbits,8
	.align 8
.LC7:
	.long	1908874354
	.long	1071761180
	.ident	"GCC: (Gentoo 4.6.3 p1.11, pie-0.5.2) 4.6.3"
	.section	.note.GNU-stack,"",@progbits
